; ModuleID = 'source-C-CXX/60/863.c'
source_filename = "source-C-CXX/60/863.c"
target datalayout = "e-m:e-p270:32:32-p271:32:32-p272:64:64-i64:64-f80:128-n8:16:32:64-S128"
target triple = "x86_64-pc-linux-gnu"

%struct._IO_FILE = type { i32, i8*, i8*, i8*, i8*, i8*, i8*, i8*, i8*, i8*, i8*, i8*, %struct._IO_marker*, %struct._IO_FILE*, i32, i32, i64, i16, i8, [1 x i8], i8*, i64, %struct._IO_codecvt*, %struct._IO_wide_data*, %struct._IO_FILE*, i8*, i64, i32, [20 x i8] }
%struct._IO_marker = type opaque
%struct._IO_codecvt = type opaque
%struct._IO_wide_data = type opaque

@.str = private unnamed_addr constant [3 x i8] c"%d\00", align 1
@.str.1 = private unnamed_addr constant [4 x i8] c"%d\0A\00", align 1
@stdin = external local_unnamed_addr global %struct._IO_FILE*, align 8

; Function Attrs: nofree nounwind sspstrong uwtable
define dso_local i32 @main() local_unnamed_addr #0 {
  %1 = alloca i32, align 4
  %2 = alloca i32, align 4
  %3 = bitcast i32* %1 to i8*
  call void @llvm.lifetime.start.p0i8(i64 4, i8* nonnull %3) #4
  %4 = bitcast i32* %2 to i8*
  call void @llvm.lifetime.start.p0i8(i64 4, i8* nonnull %4) #4
  %5 = call i32 (i8*, ...) @__isoc99_scanf(i8* getelementptr inbounds ([3 x i8], [3 x i8]* @.str, i64 0, i64 0), i32* nonnull %1)
  %6 = load i32, i32* %1, align 4, !tbaa !5
  %7 = icmp sgt i32 %6, 0
  br i1 %7, label %8, label %17

8:                                                ; preds = %0, %8
  %9 = phi i32 [ %14, %8 ], [ 0, %0 ]
  %10 = call i32 (i8*, ...) @__isoc99_scanf(i8* getelementptr inbounds ([3 x i8], [3 x i8]* @.str, i64 0, i64 0), i32* nonnull %2)
  %11 = load i32, i32* %2, align 4, !tbaa !5
  %12 = call i32 @f(i32 %11)
  %13 = call i32 (i8*, ...) @printf(i8* nonnull dereferenceable(1) getelementptr inbounds ([4 x i8], [4 x i8]* @.str.1, i64 0, i64 0), i32 %12)
  %14 = add nuw nsw i32 %9, 1
  %15 = load i32, i32* %1, align 4, !tbaa !5
  %16 = icmp slt i32 %14, %15
  br i1 %16, label %8, label %17, !llvm.loop !9

17:                                               ; preds = %8, %0
  %18 = load %struct._IO_FILE*, %struct._IO_FILE** @stdin, align 8, !tbaa !11
  %19 = call i32 @getc(%struct._IO_FILE* %18) #4
  %20 = load %struct._IO_FILE*, %struct._IO_FILE** @stdin, align 8, !tbaa !11
  %21 = call i32 @getc(%struct._IO_FILE* %20) #4
  call void @llvm.lifetime.end.p0i8(i64 4, i8* nonnull %4) #4
  call void @llvm.lifetime.end.p0i8(i64 4, i8* nonnull %3) #4
  ret i32 0
}

; Function Attrs: argmemonly mustprogress nofree nosync nounwind willreturn
declare void @llvm.lifetime.start.p0i8(i64 immarg, i8* nocapture) #1

; Function Attrs: nofree nounwind
declare noundef i32 @__isoc99_scanf(i8* nocapture noundef readonly, ...) local_unnamed_addr #2

; Function Attrs: nofree nosync nounwind readnone sspstrong uwtable
define dso_local i32 @f(i32 %0) local_unnamed_addr #3 {
  %2 = add i32 %0, -1
  %3 = icmp ult i32 %2, 2
  br i1 %3, label %15, label %4

4:                                                ; preds = %1, %4
  %5 = phi i32 [ %11, %4 ], [ %2, %1 ]
  %6 = phi i32 [ %9, %4 ], [ %0, %1 ]
  %7 = phi i32 [ %10, %4 ], [ 0, %1 ]
  %8 = tail call i32 @f(i32 %5)
  %9 = add nsw i32 %6, -2
  %10 = add nsw i32 %8, %7
  %11 = add i32 %6, -3
  %12 = icmp ult i32 %11, 2
  br i1 %12, label %13, label %4

13:                                               ; preds = %4
  %14 = add i32 %10, 1
  br label %15

15:                                               ; preds = %13, %1
  %16 = phi i32 [ 1, %1 ], [ %14, %13 ]
  ret i32 %16
}

; Function Attrs: nofree nounwind
declare noundef i32 @printf(i8* nocapture noundef readonly, ...) local_unnamed_addr #2

; Function Attrs: argmemonly mustprogress nofree nosync nounwind willreturn
declare void @llvm.lifetime.end.p0i8(i64 immarg, i8* nocapture) #1

; Function Attrs: nofree nounwind
declare noundef i32 @getc(%struct._IO_FILE* nocapture noundef) local_unnamed_addr #2


!llvm.module.flags = !{!0, !1, !2, !3}
!llvm.ident = !{!4}

!0 = !{i32 1, !"wchar_size", i32 4}
!1 = !{i32 7, !"PIC Level", i32 2}
!2 = !{i32 7, !"PIE Level", i32 2}
!3 = !{i32 7, !"uwtable", i32 1}
!4 = !{!"clang version 13.0.0"}
!5 = !{!6, !6, i64 0}
!6 = !{!"int", !7, i64 0}
!7 = !{!"omnipotent char", !8, i64 0}
!8 = !{!"Simple C/C++ TBAA"}
!9 = distinct !{!9, !10}
!10 = !{!"llvm.loop.mustprogress"}
!11 = !{!12, !12, i64 0}
!12 = !{!"any pointer", !7, i64 0}
